target datalayout = "e-m:e-p270:32:32-p271:32:32-p272:64:64-i64:64-i128:128-f80:128-n8:16:32:64-S128"
target triple = "x86_64-pc-linux-gnu"

%"class.cvc5::internal::Integer" = type { %class.__gmp_expr }
%class.__gmp_expr = type { [1 x %struct.__mpz_struct] }
%struct.__mpz_struct = type { i32, i32, ptr }

; Function Attrs: inlinehint mustprogress nounwind willreturn memory(read) uwtable
define available_externally i64 @__gmpz_getlimbn(ptr noundef %0, i64 noundef %1) #6 {
  %3 = alloca ptr, align 8
  %4 = alloca i64, align 8
  %5 = alloca i64, align 8
  store ptr %0, ptr %3, align 8, !tbaa !30
  store i64 %1, ptr %4, align 8, !tbaa !36
  call void @llvm.lifetime.start.p0(i64 8, ptr %5) #16
  store i64 0, ptr %5, align 8, !tbaa !36
  %6 = load i64, ptr %4, align 8, !tbaa !36
  %7 = icmp sge i64 %6, 0
  br i1 %7, label %8, label %27

8:                                                ; preds = %2
  %9 = load i64, ptr %4, align 8, !tbaa !36
  %10 = load ptr, ptr %3, align 8, !tbaa !30
  %11 = getelementptr inbounds nuw %struct.__mpz_struct, ptr %10, i32 0, i32 1
  %12 = load i32, ptr %11, align 4, !tbaa !35
  %13 = icmp sge i32 %12, 0
  br i1 %13, label %14, label %18

14:                                               ; preds = %8
  %15 = load ptr, ptr %3, align 8, !tbaa !30
  %16 = getelementptr inbounds nuw %struct.__mpz_struct, ptr %15, i32 0, i32 1
  %17 = load i32, ptr %16, align 4, !tbaa !35
  br label %23

18:                                               ; preds = %8
  %19 = load ptr, ptr %3, align 8, !tbaa !30
  %20 = getelementptr inbounds nuw %struct.__mpz_struct, ptr %19, i32 0, i32 1
  %21 = load i32, ptr %20, align 4, !tbaa !35
  %22 = sub nsw i32 0, %21
  br label %23

23:                                               ; preds = %18, %14
  %24 = phi i32 [ %17, %14 ], [ %22, %18 ]
  %25 = sext i32 %24 to i64
  %26 = icmp slt i64 %9, %25
  br label %27

27:                                               ; preds = %23, %2
  %28 = phi i1 [ false, %2 ], [ %26, %23 ]
  %29 = zext i1 %28 to i32
  %30 = icmp ne i32 %29, 0
  %31 = zext i1 %30 to i64
  %32 = call i64 @llvm.expect.i64(i64 %31, i64 1)
  %33 = icmp ne i64 %32, 0
  br i1 %33, label %34, label %41

34:                                               ; preds = %27
  %35 = load ptr, ptr %3, align 8, !tbaa !30
  %36 = getelementptr inbounds nuw %struct.__mpz_struct, ptr %35, i32 0, i32 2
  %37 = load ptr, ptr %36, align 8, !tbaa !31
  %38 = load i64, ptr %4, align 8, !tbaa !36
  %39 = getelementptr inbounds i64, ptr %37, i64 %38
  %40 = load i64, ptr %39, align 8, !tbaa !36
  store i64 %40, ptr %5, align 8, !tbaa !36
  br label %41

41:                                               ; preds = %34, %27
  %42 = load i64, ptr %5, align 8, !tbaa !36
  call void @llvm.lifetime.end.p0(i64 8, ptr %5) #16
  ret i64 %42
}

; Function Attrs: inlinehint mustprogress nounwind willreturn memory(read) uwtable
define available_externally i64 @__gmpz_size(ptr noundef %0) #6 {
  %2 = alloca ptr, align 8
  store ptr %0, ptr %2, align 8, !tbaa !30
  %3 = load ptr, ptr %2, align 8, !tbaa !30
  %4 = getelementptr inbounds nuw %struct.__mpz_struct, ptr %3, i32 0, i32 1
  %5 = load i32, ptr %4, align 4, !tbaa !35
  %6 = icmp sge i32 %5, 0
  br i1 %6, label %7, label %11

7:                                                ; preds = %1
  %8 = load ptr, ptr %2, align 8, !tbaa !30
  %9 = getelementptr inbounds nuw %struct.__mpz_struct, ptr %8, i32 0, i32 1
  %10 = load i32, ptr %9, align 4, !tbaa !35
  br label %16

11:                                               ; preds = %1
  %12 = load ptr, ptr %2, align 8, !tbaa !30
  %13 = getelementptr inbounds nuw %struct.__mpz_struct, ptr %12, i32 0, i32 1
  %14 = load i32, ptr %13, align 4, !tbaa !35
  %15 = sub nsw i32 0, %14
  br label %16

16:                                               ; preds = %11, %7
  %17 = phi i32 [ %10, %7 ], [ %15, %11 ]
  %18 = sext i32 %17 to i64
  ret i64 %18
}

; Function Attrs: inlinehint mustprogress nounwind uwtable
define linkonce_odr hidden noundef i64 @_ZN4cvc58internal9gmpz_hashEPK12__mpz_struct(ptr noundef %0) #4 comdat {
  %2 = alloca ptr, align 8
  %3 = alloca i64, align 8
  %4 = alloca i32, align 4
  %5 = alloca i32, align 4
  %6 = alloca i64, align 8
  store ptr %0, ptr %2, align 8, !tbaa !30
  call void @llvm.lifetime.start.p0(i64 8, ptr %3) #16
  store i64 0, ptr %3, align 8, !tbaa !36
  call void @llvm.lifetime.start.p0(i64 4, ptr %4) #16
  store i32 0, ptr %4, align 4, !tbaa !10
  call void @llvm.lifetime.start.p0(i64 4, ptr %5) #16
  %7 = load ptr, ptr %2, align 8, !tbaa !30
  %8 = call i64 @__gmpz_size(ptr noundef %7) #19
  %9 = trunc i64 %8 to i32
  store i32 %9, ptr %5, align 4, !tbaa !10
  br label %10

10:                                               ; preds = %25, %1
  %11 = load i32, ptr %4, align 4, !tbaa !10
  %12 = load i32, ptr %5, align 4, !tbaa !10
  %13 = icmp slt i32 %11, %12
  br i1 %13, label %15, label %14

14:                                               ; preds = %10
  call void @llvm.lifetime.end.p0(i64 4, ptr %5) #16
  call void @llvm.lifetime.end.p0(i64 4, ptr %4) #16
  br label %28

15:                                               ; preds = %10
  call void @llvm.lifetime.start.p0(i64 8, ptr %6) #16
  %16 = load ptr, ptr %2, align 8, !tbaa !30
  %17 = load i32, ptr %4, align 4, !tbaa !10
  %18 = sext i32 %17 to i64
  %19 = call i64 @__gmpz_getlimbn(ptr noundef %16, i64 noundef %18) #19
  store i64 %19, ptr %6, align 8, !tbaa !36
  %20 = load i64, ptr %3, align 8, !tbaa !36
  %21 = mul i64 %20, 2
  store i64 %21, ptr %3, align 8, !tbaa !36
  %22 = load i64, ptr %3, align 8, !tbaa !36
  %23 = load i64, ptr %6, align 8, !tbaa !36
  %24 = xor i64 %22, %23
  store i64 %24, ptr %3, align 8, !tbaa !36
  call void @llvm.lifetime.end.p0(i64 8, ptr %6) #16
  br label %25

25:                                               ; preds = %15
  %26 = load i32, ptr %4, align 4, !tbaa !10
  %27 = add nsw i32 %26, 1
  store i32 %27, ptr %4, align 4, !tbaa !10
  br label %10, !llvm.loop !40

28:                                               ; preds = %14
  %29 = load i64, ptr %3, align 8, !tbaa !36
  call void @llvm.lifetime.end.p0(i64 8, ptr %3) #16
  ret i64 %29
}

; Function Attrs: mustprogress nounwind uwtable
define linkonce_odr hidden noundef ptr @_ZNK10__gmp_exprIA1_12__mpz_structS1_E9get_mpz_tEv(ptr noundef nonnull align 8 dereferenceable(16) %0) #3 comdat align 2 {
  %2 = alloca ptr, align 8
  store ptr %0, ptr %2, align 8, !tbaa !12
  %3 = load ptr, ptr %2, align 8
  %4 = getelementptr inbounds nuw %class.__gmp_expr, ptr %3, i32 0, i32 0
  %5 = getelementptr inbounds [1 x %struct.__mpz_struct], ptr %4, i64 0, i64 0
  ret ptr %5
}

; Function Attrs: mustprogress uwtable
define hidden noundef i64 @_ZNK4cvc58internal7Integer4hashEv(ptr noundef nonnull align 8 dereferenceable(16) %0) #0 align 2 {
  %2 = alloca ptr, align 8
  store ptr %0, ptr %2, align 8, !tbaa !3
  %3 = load ptr, ptr %2, align 8
  %4 = getelementptr inbounds nuw %"class.cvc5::internal::Integer", ptr %3, i32 0, i32 0
  %5 = call noundef ptr @_ZNK10__gmp_exprIA1_12__mpz_structS1_E9get_mpz_tEv(ptr noundef nonnull align 8 dereferenceable(16) %4)
  %6 = call noundef i64 @_ZN4cvc58internal9gmpz_hashEPK12__mpz_struct(ptr noundef %5)
  ret i64 %6
}